target datalayout = "e-m:e-p270:32:32-p271:32:32-p272:64:64-i64:64-i128:128-f80:128-n8:16:32:64-S128"
target triple = "x86_64-pc-linux-gnu"

%struct.UDataMemory = type { ptr, ptr, ptr, i8, ptr, ptr, i32 }

@_ZL19gCommonICUDataArray = internal global [10 x ptr] zeroinitializer, align 16

; Function Attrs: inlinehint mustprogress nounwind uwtable
define internal noundef signext i8 @_ZL9U_FAILURE10UErrorCode(i32 noundef %0) #2 {
  %2 = alloca i32, align 4
  store i32 %0, ptr %2, align 4, !tbaa !15
  %3 = load i32, ptr %2, align 4, !tbaa !15
  %4 = icmp sgt i32 %3, 0
  %5 = zext i1 %4 to i8
  ret i8 %5
}

; Function Attrs: mustprogress uwtable
define internal noundef signext i8 @_ZL16setCommonICUDataP11UDataMemoryaP10UErrorCode(ptr noundef %0, i8 noundef signext %1, ptr noundef %2) #1 {
  %4 = alloca i8, align 1
  %5 = alloca ptr, align 8
  %6 = alloca i8, align 1
  %7 = alloca ptr, align 8
  %8 = alloca ptr, align 8
  %9 = alloca i32, align 4
  %10 = alloca i8, align 1
  %11 = alloca i32, align 4
  store ptr %0, ptr %5, align 8, !tbaa !43
  store i8 %1, ptr %6, align 1, !tbaa !25
  store ptr %2, ptr %7, align 8, !tbaa !22
  call void @llvm.lifetime.start.p0(i64 8, ptr %8) #12
  %12 = load ptr, ptr %7, align 8, !tbaa !22
  %13 = call ptr @UDataMemory_createNewInstance_77(ptr noundef %12)
  store ptr %13, ptr %8, align 8, !tbaa !43
  call void @llvm.lifetime.start.p0(i64 4, ptr %9) #12
  call void @llvm.lifetime.start.p0(i64 1, ptr %10) #12
  store i8 0, ptr %10, align 1, !tbaa !25
  %14 = load ptr, ptr %7, align 8, !tbaa !22
  %15 = load i32, ptr %14, align 4, !tbaa !15
  %16 = call noundef signext i8 @_ZL9U_FAILURE10UErrorCode(i32 noundef %15)
  %17 = icmp ne i8 %16, 0
  br i1 %17, label %18, label %19

18:                                               ; preds = %3
  store i8 0, ptr %4, align 1
  store i32 1, ptr %11, align 4
  br label %69

19:                                               ; preds = %3
  %20 = load ptr, ptr %8, align 8, !tbaa !43
  %21 = load ptr, ptr %5, align 8, !tbaa !43
  call void @UDatamemory_assign_77(ptr noundef %20, ptr noundef %21)
  call void @umtx_lock_77(ptr noundef null)
  store i32 0, ptr %9, align 4, !tbaa !14
  br label %22

22:                                               ; preds = %50, %19
  %23 = load i32, ptr %9, align 4, !tbaa !14
  %24 = icmp slt i32 %23, 10
  br i1 %24, label %25, label %53

25:                                               ; preds = %22
  %26 = load i32, ptr %9, align 4, !tbaa !14
  %27 = sext i32 %26 to i64
  %28 = getelementptr inbounds [10 x ptr], ptr @_ZL19gCommonICUDataArray, i64 0, i64 %27
  %29 = load ptr, ptr %28, align 8, !tbaa !43
  %30 = icmp eq ptr %29, null
  br i1 %30, label %31, label %36

31:                                               ; preds = %25
  %32 = load ptr, ptr %8, align 8, !tbaa !43
  %33 = load i32, ptr %9, align 4, !tbaa !14
  %34 = sext i32 %33 to i64
  %35 = getelementptr inbounds [10 x ptr], ptr @_ZL19gCommonICUDataArray, i64 0, i64 %34
  store ptr %32, ptr %35, align 8, !tbaa !43
  store i8 1, ptr %10, align 1, !tbaa !25
  br label %53

36:                                               ; preds = %25
  %37 = load i32, ptr %9, align 4, !tbaa !14
  %38 = sext i32 %37 to i64
  %39 = getelementptr inbounds [10 x ptr], ptr @_ZL19gCommonICUDataArray, i64 0, i64 %38
  %40 = load ptr, ptr %39, align 8, !tbaa !43
  %41 = getelementptr inbounds nuw %struct.UDataMemory, ptr %40, i32 0, i32 1
  %42 = load ptr, ptr %41, align 8, !tbaa !45
  %43 = load ptr, ptr %5, align 8, !tbaa !43
  %44 = getelementptr inbounds nuw %struct.UDataMemory, ptr %43, i32 0, i32 1
  %45 = load ptr, ptr %44, align 8, !tbaa !45
  %46 = icmp eq ptr %42, %45
  br i1 %46, label %47, label %48

47:                                               ; preds = %36
  br label %53

48:                                               ; preds = %36
  br label %49

49:                                               ; preds = %48
  br label %50

50:                                               ; preds = %49
  %51 = load i32, ptr %9, align 4, !tbaa !14
  %52 = add nsw i32 %51, 1
  store i32 %52, ptr %9, align 4, !tbaa !14
  br label %22, !llvm.loop !47

53:                                               ; preds = %47, %31, %22
  call void @umtx_unlock_77(ptr noundef null)
  %54 = load i32, ptr %9, align 4, !tbaa !14
  %55 = icmp eq i32 %54, 10
  br i1 %55, label %56, label %61

56:                                               ; preds = %53
  %57 = load i8, ptr %6, align 1, !tbaa !25
  %58 = icmp ne i8 %57, 0
  br i1 %58, label %59, label %61

59:                                               ; preds = %56
  %60 = load ptr, ptr %7, align 8, !tbaa !22
  store i32 -127, ptr %60, align 4, !tbaa !15
  br label %61

61:                                               ; preds = %59, %56, %53
  %62 = load i8, ptr %10, align 1, !tbaa !25
  %63 = icmp ne i8 %62, 0
  br i1 %63, label %64, label %65

64:                                               ; preds = %61
  call void @ucln_common_registerCleanup_77(i32 noundef 23, ptr noundef @_ZL13udata_cleanupv)
  br label %67

65:                                               ; preds = %61
  %66 = load ptr, ptr %8, align 8, !tbaa !43
  call void @uprv_free_77(ptr noundef %66)
  br label %67

67:                                               ; preds = %65, %64
  %68 = load i8, ptr %10, align 1, !tbaa !25
  store i8 %68, ptr %4, align 1
  store i32 1, ptr %11, align 4
  br label %69

69:                                               ; preds = %67, %18
  call void @llvm.lifetime.end.p0(i64 1, ptr %10) #12
  call void @llvm.lifetime.end.p0(i64 4, ptr %9) #12
  call void @llvm.lifetime.end.p0(i64 8, ptr %8) #12
  %70 = load i8, ptr %4, align 1
  ret i8 %70
}