; Function Attrs: mustprogress uwtable
define internal fastcc void @_ZL16setCommonICUDataP11UDataMemoryaP10UErrorCode(ptr noundef nonnull %0, i8 noundef signext range(i8 0, 2) %1, ptr noundef nonnull %2) unnamed_addr #1 {
  %4 = tail call ptr @UDataMemory_createNewInstance_77(ptr noundef nonnull %2)
  %5 = load i32, ptr %2, align 4, !tbaa !13
  %6 = icmp slt i32 %5, 1
  br i1 %6, label %7, label %28

7:                                                ; preds = %3
  tail call void @UDatamemory_assign_77(ptr noundef %4, ptr noundef nonnull %0)
  tail call void @umtx_lock_77(ptr noundef null)
  %8 = getelementptr inbounds nuw i8, ptr %0, i64 8
  br label %9

9:                                                ; preds = %7, %20
  %indvars.iv = phi i64 [ 0, %7 ], [ %indvars.iv.next, %20 ]
  %10 = getelementptr inbounds nuw [10 x ptr], ptr @_ZL19gCommonICUDataArray, i64 0, i64 %indvars.iv
  %11 = load ptr, ptr %10, align 8, !tbaa !30
  %.not = icmp eq ptr %11, null
  br i1 %.not, label %12, label %15

12:                                               ; preds = %9
  %13 = getelementptr inbounds nuw [10 x ptr], ptr @_ZL19gCommonICUDataArray, i64 0, i64 %indvars.iv
  %14 = trunc nuw nsw i64 %indvars.iv to i32
  store ptr %4, ptr %13, align 8, !tbaa !30
  br label %.loopexit

15:                                               ; preds = %9
  %16 = getelementptr inbounds nuw i8, ptr %11, i64 8
  %17 = load ptr, ptr %16, align 8, !tbaa !32
  %18 = load ptr, ptr %8, align 8, !tbaa !32
  %19 = icmp eq ptr %17, %18
  br i1 %19, label %.loopexit.loopexit.split.loop.exit35, label %20

20:                                               ; preds = %15
  %indvars.iv.next = add nuw nsw i64 %indvars.iv, 1
  %exitcond.not = icmp eq i64 %indvars.iv.next, 10
  br i1 %exitcond.not, label %.loopexit, label %9, !llvm.loop !34

.loopexit.loopexit.split.loop.exit35:             ; preds = %15
  %21 = trunc nuw nsw i64 %indvars.iv to i32
  br label %.loopexit

.loopexit:                                        ; preds = %20, %.loopexit.loopexit.split.loop.exit35, %12
  %.01823 = phi i32 [ %14, %12 ], [ %21, %.loopexit.loopexit.split.loop.exit35 ], [ 10, %20 ]
  tail call void @umtx_unlock_77(ptr noundef null)
  %22 = icmp eq i32 %.01823, 10
  %23 = icmp ne i8 %1, 0
  %or.cond = and i1 %23, %22
  br i1 %or.cond, label %24, label %25

24:                                               ; preds = %.loopexit
  store i32 -127, ptr %2, align 4, !tbaa !13
  br label %25

25:                                               ; preds = %24, %.loopexit
  br i1 %.not, label %26, label %27

26:                                               ; preds = %25
  tail call void @ucln_common_registerCleanup_77(i32 noundef 23, ptr noundef nonnull @_ZL13udata_cleanupv)
  br label %28

27:                                               ; preds = %25
  tail call void @uprv_free_77(ptr noundef %4)
  br label %28

28:                                               ; preds = %26, %27, %3
  ret void
}